(dp0
S'_AgentService:AgentInfo'
p1
(dp2
S'com.plexapp.agents.fanarttv'
p3
(lp4
(dp5
S'media_types'
p6
(lp7
S'Movie'
p8
asS'primary_provider'
p9
I00
sS'fallback_agent'
p10
NsS'contributes_to'
p11
(lp12
S'com.plexapp.agents.imdb'
p13
aS'com.plexapp.agents.themoviedb'
p14
asS'has_attribution'
p15
I01
sS'languages'
p16
(lp17
S'xn'
p18
asS'persist_stored_files'
p19
I01
sS'version'
p20
I0
sS'accepts_from'
p21
NsS'prefs'
p22
I01
sS'name'
p23
S'Fanart.tv'
p24
sa(dp25
S'media_types'
p26
(lp27
S'TV_Show'
p28
asS'primary_provider'
p29
I00
sS'fallback_agent'
p30
NsS'contributes_to'
p31
(lp32
S'com.plexapp.agents.thetvdb'
p33
aS'com.plexapp.agents.themoviedb'
p34
asg15
I01
sS'languages'
p35
(lp36
S'xn'
p37
asS'persist_stored_files'
p38
I01
sS'version'
p39
I0
sS'accepts_from'
p40
NsS'prefs'
p41
I01
sS'name'
p42
S'Fanart.tv'
p43
sa(dp44
S'media_types'
p45
(lp46
S'Artist'
p47
asS'primary_provider'
p48
I00
sS'fallback_agent'
p49
NsS'contributes_to'
p50
(lp51
S'com.plexapp.agents.lastfm'
p52
asg15
I01
sS'languages'
p53
(lp54
S'xn'
p55
asS'persist_stored_files'
p56
I01
sS'version'
p57
I0
sS'accepts_from'
p58
NsS'prefs'
p59
I01
sS'name'
p60
S'Fanart.tv'
p61
sa(dp62
S'media_types'
p63
(lp64
S'Album'
p65
asS'primary_provider'
p66
I00
sS'fallback_agent'
p67
NsS'contributes_to'
p68
(lp69
S'com.plexapp.agents.lastfm'
p70
asg15
I01
sS'languages'
p71
(lp72
S'xn'
p73
asS'persist_stored_files'
p74
I01
sS'version'
p75
I0
sS'accepts_from'
p76
NsS'prefs'
p77
I01
sS'name'
p78
S'Fanart.tv'
p79
sasS'com.plexapp.agents.none'
p80
(lp81
(dp82
S'media_types'
p83
(lp84
S'Movie'
p85
asS'accepts_from'
p86
NsS'fallback_agent'
p87
NsS'contributes_to'
p88
NsS'has_attribution'
p89
I00
sS'languages'
p90
(lp91
S'xn'
p92
asS'persist_stored_files'
p93
I01
sS'version'
p94
I0
sS'primary_provider'
p95
I01
sS'prefs'
p96
I00
sS'name'
p97
S'Personal Media'
p98
sa(dp99
S'media_types'
p100
(lp101
S'TV_Show'
p102
asS'accepts_from'
p103
NsS'fallback_agent'
p104
NsS'contributes_to'
p105
Nsg89
I00
sS'languages'
p106
(lp107
S'xn'
p108
asS'persist_stored_files'
p109
I01
sS'version'
p110
I0
sS'primary_provider'
p111
I01
sS'prefs'
p112
I00
sS'name'
p113
S'Personal Media Shows'
p114
sa(dp115
S'media_types'
p116
(lp117
S'Artist'
p118
asS'accepts_from'
p119
NsS'fallback_agent'
p120
NsS'contributes_to'
p121
Nsg89
I00
sS'languages'
p122
(lp123
S'xn'
p124
asS'persist_stored_files'
p125
I01
sS'version'
p126
I0
sS'primary_provider'
p127
I01
sS'prefs'
p128
I00
sS'name'
p129
S'Personal Media Artists'
p130
sa(dp131
S'media_types'
p132
(lp133
S'Album'
p134
asS'accepts_from'
p135
NsS'fallback_agent'
p136
NsS'contributes_to'
p137
Nsg89
I00
sS'languages'
p138
(lp139
S'xn'
p140
asS'persist_stored_files'
p141
I01
sS'version'
p142
I0
sS'primary_provider'
p143
I01
sS'prefs'
p144
I00
sS'name'
p145
S'Personal Media Albums'
p146
sa(dp147
S'media_types'
p148
(lp149
S'Photo'
p150
asS'accepts_from'
p151
NsS'fallback_agent'
p152
NsS'contributes_to'
p153
Nsg89
I00
sS'languages'
p154
(lp155
S'en'
p156
aS'ar'
p157
aS'bg'
p158
aS'ca'
p159
aS'cs'
p160
aS'cy'
p161
aS'da'
p162
aS'de'
p163
aS'el'
p164
aS'es'
p165
aS'et'
p166
aS'fa'
p167
aS'fi'
p168
aS'fr'
p169
aS'he'
p170
aS'hi'
p171
aS'hr'
p172
aS'ht'
p173
aS'hu'
p174
aS'id'
p175
aS'it'
p176
aS'ja'
p177
aS'ko'
p178
aS'lt'
p179
aS'lv'
p180
aS'ms'
p181
aS'mt'
p182
aS'nl'
p183
aS'no'
p184
aS'pl'
p185
aS'pt'
p186
aS'ro'
p187
aS'ru'
p188
aS'sk'
p189
aS'sv'
p190
aS'sl'
p191
aS'sr'
p192
aS'th'
p193
aS'tr'
p194
aS'uk'
p195
aS'ur'
p196
aS'vi'
p197
aS'zh'
p198
aS'xn'
p199
asS'persist_stored_files'
p200
I01
sS'version'
p201
I0
sS'primary_provider'
p202
I01
sS'prefs'
p203
I00
sS'name'
p204
S'Photos'
p205
sasS'com.plexapp.agents.opensubtitles'
p206
(lp207
(dp208
S'media_types'
p209
(lp210
S'Movie'
p211
asS'primary_provider'
p212
I00
sS'fallback_agent'
p213
NsS'contributes_to'
p214
(lp215
S'com.plexapp.agents.imdb'
p216
asS'has_attribution'
p217
I00
sS'languages'
p218
(lp219
S'xn'
p220
asS'persist_stored_files'
p221
I01
sS'version'
p222
I0
sS'accepts_from'
p223
NsS'prefs'
p224
I01
sS'name'
p225
S'OpenSubtitles.org'
p226
sa(dp227
S'media_types'
p228
(lp229
S'TV_Show'
p230
asS'primary_provider'
p231
I00
sS'fallback_agent'
p232
NsS'contributes_to'
p233
(lp234
S'com.plexapp.agents.thetvdb'
p235
asg217
I00
sS'languages'
p236
(lp237
S'xn'
p238
asS'persist_stored_files'
p239
I01
sS'version'
p240
I0
sS'accepts_from'
p241
NsS'prefs'
p242
I01
sS'name'
p243
S'OpenSubtitles.org'
p244
sasS'com.plexapp.agents.imdb'
p245
(lp246
(dp247
S'media_types'
p248
(lp249
S'Movie'
p250
asS'primary_provider'
p251
I01
sS'fallback_agent'
p252
NsS'contributes_to'
p253
(lp254
S'com.plexapp.agents.themoviedb'
p255
asg15
I01
sS'languages'
p256
(lp257
S'en'
p258
aS'sv'
p259
aS'fr'
p260
aS'es'
p261
aS'nl'
p262
aS'de'
p263
aS'it'
p264
aS'da'
p265
aS'ar'
p266
aS'ca'
p267
aS'zh'
p268
aS'cs'
p269
aS'et'
p270
aS'fi'
p271
aS'el'
p272
aS'he'
p273
aS'hi'
p274
aS'hu'
p275
aS'id'
p276
aS'ja'
p277
aS'ko'
p278
aS'lv'
p279
aS'no'
p280
aS'fa'
p281
aS'pl'
p282
aS'pt'
p283
aS'ro'
p284
aS'ru'
p285
aS'sk'
p286
aS'th'
p287
aS'tr'
p288
aS'uk'
p289
aS'vi'
p290
asS'persist_stored_files'
p291
I01
sS'version'
p292
I0
sS'accepts_from'
p293
(lp294
S'com.plexapp.agents.localmedia'
p295
asS'prefs'
p296
I01
sS'name'
p297
S'Plex Movie (Legacy)'
p298
sasS'com.plexapp.agents.lyricfind'
p299
(lp300
(dp301
S'media_types'
p302
(lp303
S'Album'
p304
asS'primary_provider'
p305
I00
sS'fallback_agent'
p306
NsS'contributes_to'
p307
(lp308
S'com.plexapp.agents.lastfm'
p309
aS'tv.plex.agents.music'
p310
aS'org.musicbrainz.agents.music'
p311
asg15
I01
sS'languages'
p312
(lp313
S'xn'
p314
asS'persist_stored_files'
p315
I01
sS'version'
p316
I0
sS'accepts_from'
p317
NsS'prefs'
p318
I00
sS'name'
p319
S'LyricFind'
p320
sasS'com.plexapp.agents.thetvdb'
p321
(lp322
(dp323
S'media_types'
p324
(lp325
S'TV_Show'
p326
asS'primary_provider'
p327
I01
sS'fallback_agent'
p328
NsS'contributes_to'
p329
Nsg15
I01
sS'languages'
p330
(lp331
S'en'
p332
aS'fr'
p333
aS'zh'
p334
aS'sv'
p335
aS'no'
p336
aS'da'
p337
aS'fi'
p338
aS'nl'
p339
aS'de'
p340
aS'it'
p341
aS'es'
p342
aS'pl'
p343
aS'hu'
p344
aS'el'
p345
aS'tr'
p346
aS'ru'
p347
aS'he'
p348
aS'ja'
p349
aS'pt'
p350
aS'cs'
p351
aS'ko'
p352
aS'sl'
p353
aS'hr'
p354
asS'persist_stored_files'
p355
I01
sS'version'
p356
I0
sS'accepts_from'
p357
NsS'prefs'
p358
I01
sS'name'
p359
S'TheTVDB'
p360
sasS'com.plexapp.agents.localmedia'
p361
(lp362
(dp363
S'media_types'
p364
(lp365
S'Movie'
p366
asS'primary_provider'
p367
I00
sS'fallback_agent'
p368
NsS'contributes_to'
p369
(lp370
S'com.plexapp.agents.imdb'
p371
aS'com.plexapp.agents.none'
p372
asg15
I00
sS'languages'
p373
(lp374
S'xn'
p375
asS'persist_stored_files'
p376
I00
sS'version'
p377
I0
sS'accepts_from'
p378
NsS'prefs'
p379
I01
sS'name'
p380
S'Local Media Assets (Movies)'
p381
sa(dp382
S'media_types'
p383
(lp384
S'TV_Show'
p385
asS'primary_provider'
p386
I00
sS'fallback_agent'
p387
NsS'contributes_to'
p388
(lp389
S'com.plexapp.agents.thetvdb'
p390
aS'com.plexapp.agents.none'
p391
asg15
I00
sS'languages'
p392
(lp393
S'xn'
p394
asS'persist_stored_files'
p395
I00
sS'version'
p396
I0
sS'accepts_from'
p397
NsS'prefs'
p398
I01
sS'name'
p399
S'Local Media Assets (TV)'
p400
sa(dp401
S'media_types'
p402
(lp403
S'Artist'
p404
asS'primary_provider'
p405
I00
sS'fallback_agent'
p406
NsS'contributes_to'
p407
(lp408
S'com.plexapp.agents.discogs'
p409
aS'com.plexapp.agents.lastfm'
p410
aS'com.plexapp.agents.plexmusic'
p411
aS'com.plexapp.agents.none'
p412
aS'tv.plex.agents.music'
p413
aS'org.musicbrainz.agents.music'
p414
asg15
I00
sS'languages'
p415
(lp416
S'xn'
p417
asS'persist_stored_files'
p418
I00
sS'version'
p419
I0
sS'accepts_from'
p420
NsS'prefs'
p421
I01
sS'name'
p422
S'Local Media Assets (Artists)'
p423
sa(dp424
S'media_types'
p425
(lp426
S'Artist'
p427
asS'primary_provider'
p428
I00
sS'fallback_agent'
p429
NsS'contributes_to'
p430
(lp431
S'com.plexapp.agents.plexmusic'
p432
asg15
I00
sS'languages'
p433
g416
sS'persist_stored_files'
p434
I00
sS'version'
p435
I2
sS'accepts_from'
p436
NsS'prefs'
p437
I01
sS'name'
p438
S'Local Media Assets (Artists)'
p439
sa(dp440
S'media_types'
p441
(lp442
S'Album'
p443
asS'primary_provider'
p444
I00
sS'fallback_agent'
p445
NsS'contributes_to'
p446
(lp447
S'com.plexapp.agents.discogs'
p448
aS'com.plexapp.agents.lastfm'
p449
aS'com.plexapp.agents.plexmusic'
p450
aS'com.plexapp.agents.none'
p451
aS'tv.plex.agents.music'
p452
aS'org.musicbrainz.agents.music'
p453
asg15
I00
sS'languages'
p454
(lp455
S'xn'
p456
asS'persist_stored_files'
p457
I00
sS'version'
p458
I0
sS'accepts_from'
p459
NsS'prefs'
p460
I01
sS'name'
p461
S'Local Media Assets (Albums)'
p462
sasS'com.plexapp.agents.plexthememusic'
p463
(lp464
(dp465
S'media_types'
p466
(lp467
S'TV_Show'
p468
asS'primary_provider'
p469
I00
sS'fallback_agent'
p470
NsS'contributes_to'
p471
(lp472
S'com.plexapp.agents.thetvdb'
p473
aS'com.plexapp.agents.thetvdbdvdorder'
p474
aS'com.plexapp.agents.themoviedb'
p475
asg217
I00
sS'languages'
p476
(lp477
S'xn'
p478
asS'persist_stored_files'
p479
I01
sS'version'
p480
I0
sS'accepts_from'
p481
NsS'prefs'
p482
I00
sS'name'
p483
S'Plex Theme Music'
p484
sasS'org.musicbrainz.agents.music'
p485
(lp486
(dp487
S'media_types'
p488
(lp489
S'Artist'
p490
asS'primary_provider'
p491
I01
sS'fallback_agent'
p492
NsS'contributes_to'
p493
Nsg15
I01
sS'languages'
p494
(lp495
S'en'
p496
aS'ar'
p497
aS'bg'
p498
aS'zh'
p499
aS'hr'
p500
aS'cs'
p501
aS'da'
p502
aS'nl'
p503
aS'fi'
p504
aS'fr'
p505
aS'de'
p506
aS'el'
p507
aS'hu'
p508
aS'id'
p509
aS'it'
p510
aS'ja'
p511
aS'ko'
p512
aS'nn'
p513
aS'pl'
p514
aS'pt'
p515
aS'ro'
p516
aS'ru'
p517
aS'sr'
p518
aS'sk'
p519
aS'es'
p520
aS'sv'
p521
aS'th'
p522
aS'tr'
p523
aS'vi'
p524
aS'xx'
p525
asS'persist_stored_files'
p526
I01
sS'version'
p527
I0
sS'accepts_from'
p528
NsS'prefs'
p529
I01
sS'name'
p530
S'Musicbrainz'
p531
sa(dp532
S'media_types'
p533
(lp534
S'Album'
p535
asS'primary_provider'
p536
I01
sS'fallback_agent'
p537
NsS'contributes_to'
p538
Nsg15
I01
sS'languages'
p539
g495
sS'persist_stored_files'
p540
I01
sS'version'
p541
I0
sS'accepts_from'
p542
NsS'prefs'
p543
I01
sS'name'
p544
S'Musicbrainz'
p545
sasS'com.plexapp.agents.themoviedb'
p546
(lp547
(dp548
S'media_types'
p549
(lp550
S'Movie'
p551
asS'accepts_from'
p552
(lp553
S'com.plexapp.agents.localmedia'
p554
asS'fallback_agent'
p555
NsS'contributes_to'
p556
Nsg89
I01
sS'languages'
p557
(lp558
S'en'
p559
aS'cs'
p560
aS'da'
p561
aS'de'
p562
aS'el'
p563
aS'es'
p564
aS'fi'
p565
aS'fr'
p566
aS'he'
p567
aS'hr'
p568
aS'hu'
p569
aS'it'
p570
aS'lv'
p571
aS'lt'
p572
aS'nl'
p573
aS'no'
p574
aS'pl'
p575
aS'pt'
p576
aS'ru'
p577
aS'sk'
p578
aS'sv'
p579
aS'th'
p580
aS'tr'
p581
aS'vi'
p582
aS'zh'
p583
aS'ko'
p584
asS'persist_stored_files'
p585
I01
sS'version'
p586
I0
sS'primary_provider'
p587
I01
sS'prefs'
p588
I01
sS'name'
p589
S'The Movie Database'
p590
sa(dp591
S'media_types'
p592
(lp593
S'TV_Show'
p594
asS'accepts_from'
p595
(lp596
S'com.plexapp.agents.localmedia'
p597
aS'com.plexapp.agents.thetvdb'
p598
asS'fallback_agent'
p599
NsS'contributes_to'
p600
(lp601
S'com.plexapp.agents.thetvdb'
p602
asg89
I01
sS'languages'
p603
g558
sS'persist_stored_files'
p604
I01
sS'version'
p605
I0
sS'primary_provider'
p606
I01
sS'prefs'
p607
I01
sS'name'
p608
S'The Movie Database'
p609
sasS'com.plexapp.agents.movieposterdb'
p610
(lp611
(dp612
S'media_types'
p613
(lp614
S'Movie'
p615
asS'primary_provider'
p616
I00
sS'fallback_agent'
p617
NsS'contributes_to'
p618
(lp619
S'com.plexapp.agents.imdb'
p620
asg15
I01
sS'languages'
p621
(lp622
S'xn'
p623
asS'persist_stored_files'
p624
I01
sS'version'
p625
I0
sS'accepts_from'
p626
NsS'prefs'
p627
I00
sS'name'
p628
S'CineMaterial'
p629
sasS'com.plexapp.agents.htbackdrops'
p630
(lp631
(dp632
S'media_types'
p633
(lp634
S'Artist'
p635
asS'accepts_from'
p636
NsS'fallback_agent'
p637
NsS'contributes_to'
p638
(lp639
S'com.plexapp.agents.lastfm'
p640
asg89
I01
sS'languages'
p641
(lp642
S'ab'
p643
aS'aa'
p644
aS'af'
p645
aS'ak'
p646
aS'sq'
p647
aS'am'
p648
aS'ar'
p649
aS'an'
p650
aS'hy'
p651
aS'as'
p652
aS'av'
p653
aS'ae'
p654
aS'ay'
p655
aS'az'
p656
aS'bm'
p657
aS'ba'
p658
aS'eu'
p659
aS'be'
p660
aS'bn'
p661
aS'bh'
p662
aS'bi'
p663
aS'bs'
p664
aS'pb'
p665
aS'br'
p666
aS'bg'
p667
aS'my'
p668
aS'ca'
p669
aS'ch'
p670
aS'ce'
p671
aS'ny'
p672
aS'zh'
p673
aS'cu'
p674
aS'cv'
p675
aS'kw'
p676
aS'co'
p677
aS'cr'
p678
aS'hr'
p679
aS'cs'
p680
aS'da'
p681
aS'dv'
p682
aS'nl'
p683
aS'dz'
p684
aS'en'
p685
aS'eo'
p686
aS'et'
p687
aS'ee'
p688
aS'fo'
p689
aS'fj'
p690
aS'fi'
p691
aS'fr'
p692
aS'fy'
p693
aS'ff'
p694
aS'gd'
p695
aS'gl'
p696
aS'lg'
p697
aS'ka'
p698
aS'de'
p699
aS'el'
p700
aS'gn'
p701
aS'gu'
p702
aS'ht'
p703
aS'ha'
p704
aS'he'
p705
aS'hz'
p706
aS'hi'
p707
aS'ho'
p708
aS'hu'
p709
aS'is'
p710
aS'io'
p711
aS'ig'
p712
aS'id'
p713
aS'ia'
p714
aS'ie'
p715
aS'iu'
p716
aS'ik'
p717
aS'ga'
p718
aS'it'
p719
aS'ja'
p720
aS'jv'
p721
aS'kl'
p722
aS'kn'
p723
aS'kr'
p724
aS'ks'
p725
aS'kk'
p726
aS'km'
p727
aS'ki'
p728
aS'rw'
p729
aS'ky'
p730
aS'kv'
p731
aS'kg'
p732
aS'ko'
p733
aS'kj'
p734
aS'ku'
p735
aS'lo'
p736
aS'la'
p737
aS'lv'
p738
aS'li'
p739
aS'ln'
p740
aS'lt'
p741
aS'lu'
p742
aS'lb'
p743
aS'mk'
p744
aS'mg'
p745
aS'ms'
p746
aS'ml'
p747
aS'mt'
p748
aS'gv'
p749
aS'mi'
p750
aS'mr'
p751
aS'mh'
p752
aS'mo'
p753
aS'mn'
p754
aS'na'
p755
aS'nv'
p756
aS'ng'
p757
aS'ne'
p758
aS'xn'
p759
aS'nd'
p760
aS'no'
p761
aS'nb'
p762
aS'nn'
p763
aS'oc'
p764
aS'oj'
p765
aS'or'
p766
aS'om'
p767
aS'os'
p768
aS'pi'
p769
aS'pa'
p770
aS'fa'
p771
aS'pl'
p772
aS'pt'
p773
aS'ps'
p774
aS'qu'
p775
aS'rm'
p776
aS'ro'
p777
aS'rn'
p778
aS'ru'
p779
aS'se'
p780
aS'sm'
p781
aS'sg'
p782
aS'sa'
p783
aS'sc'
p784
aS'sr'
p785
aS'sn'
p786
aS'ii'
p787
aS'sd'
p788
aS'si'
p789
aS'sk'
p790
aS'sl'
p791
aS'so'
p792
aS'st'
p793
aS'nr'
p794
aS'es'
p795
aS'su'
p796
aS'sw'
p797
aS'ss'
p798
aS'sv'
p799
aS'tl'
p800
aS'ty'
p801
aS'tg'
p802
aS'ta'
p803
aS'tt'
p804
aS'te'
p805
aS'th'
p806
aS'bo'
p807
aS'ti'
p808
aS'to'
p809
aS'ts'
p810
aS'tn'
p811
aS'tr'
p812
aS'tk'
p813
aS'tw'
p814
aS'ug'
p815
aS'uk'
p816
aS'ur'
p817
aS'uz'
p818
aS've'
p819
aS'vi'
p820
aS'vo'
p821
aS'wa'
p822
aS'cy'
p823
aS'wo'
p824
aS'xh'
p825
aS'yi'
p826
aS'yo'
p827
aS'za'
p828
aS'zu'
p829
asS'persist_stored_files'
p830
I01
sS'version'
p831
I0
sS'primary_provider'
p832
I00
sS'prefs'
p833
I00
sS'name'
p834
S'Home Theater Backdrops'
p835
sasS'com.plexapp.agents.lastfm'
p836
(lp837
(dp838
S'media_types'
p839
(lp840
S'Artist'
p841
asS'primary_provider'
p842
I01
sS'fallback_agent'
p843
NsS'contributes_to'
p844
Nsg15
I01
sS'languages'
p845
(lp846
S'en'
p847
aS'sv'
p848
aS'fr'
p849
aS'es'
p850
aS'de'
p851
aS'pl'
p852
aS'it'
p853
aS'pt'
p854
aS'ja'
p855
aS'tr'
p856
aS'ru'
p857
aS'zh'
p858
asS'persist_stored_files'
p859
I01
sS'version'
p860
I0
sS'accepts_from'
p861
NsS'prefs'
p862
I01
sS'name'
p863
S'Last.fm'
p864
sa(dp865
S'media_types'
p866
(lp867
S'Album'
p868
asS'primary_provider'
p869
I01
sS'fallback_agent'
p870
NsS'contributes_to'
p871
Nsg15
I01
sS'languages'
p872
(lp873
S'en'
p874
aS'sv'
p875
aS'fr'
p876
aS'es'
p877
aS'de'
p878
aS'pl'
p879
aS'it'
p880
aS'pt'
p881
aS'ja'
p882
aS'tr'
p883
aS'ru'
p884
aS'zh'
p885
asS'persist_stored_files'
p886
I01
sS'version'
p887
I0
sS'accepts_from'
p888
NsS'prefs'
p889
I01
sS'name'
p890
S'Last.fm'
p891
sass.